Certificate:
    Data:
        Version: 3 (0x2)
        Serial Number: 1 (0x1)
    Signature Algorithm: sha256WithRSAEncryption
        Issuer: C=US, ST=California, O=ON.Lab, OU=Test Deployment, CN=MySite Intermediate CA
        Validity
            Not Before: Jan  8 09:33:04 2018 GMT
            Not After : Jan  8 09:33:04 2019 GMT
        Subject: C=US, ST=California, L=Menlo Park, O=ON.Lab, OU=MySite Deployment, CN=keystone.cord.lab
        Subject Public Key Info:
            Public Key Algorithm: rsaEncryption
                Public-Key: (2048 bit)
                Modulus:
                    00:ac:ea:b5:07:1a:49:7c:b4:cd:0c:a0:67:7c:25:
                    f2:2e:89:63:32:cc:77:eb:75:38:5e:b6:cd:eb:bc:
                    4b:ad:b5:48:fc:25:c3:11:c2:01:e6:7c:c2:ca:83:
                    e0:b4:34:08:68:ef:8e:0d:da:60:aa:63:5e:09:89:
                    c9:5c:f4:84:b5:f0:f9:2a:5a:f8:84:90:26:97:95:
                    fe:dc:7c:a5:3d:1d:f0:67:5a:dd:7a:9f:91:d9:cb:
                    53:aa:0e:a3:7d:70:7f:22:ca:a5:ac:d8:06:b6:15:
                    12:8c:94:ab:3d:ad:04:6c:59:bc:bb:95:3f:fb:95:
                    6f:67:ac:bb:e7:7b:9f:ea:ff:c7:1d:77:b9:77:f6:
                    62:2f:82:b3:76:bd:9d:a3:30:82:e1:b3:6a:97:6e:
                    33:9b:8c:ef:d3:66:7c:f5:e7:89:b8:77:ad:85:c4:
                    76:75:05:5a:ee:a4:c4:0f:f6:f3:da:06:63:a0:a6:
                    c9:60:51:e1:df:ea:25:1a:4c:40:3b:25:b2:4d:77:
                    14:eb:af:1a:a3:89:45:d3:28:1e:26:85:b9:dc:a8:
                    c9:46:1e:5f:ce:33:4b:3d:bb:b8:35:2d:79:92:74:
                    44:ac:0f:74:c0:c2:06:80:ba:31:55:a9:95:3e:50:
                    ff:72:57:74:fe:65:f4:a2:01:5f:c6:a7:04:57:e7:
                    e6:4b
                Exponent: 65537 (0x10001)
        X509v3 extensions:
            X509v3 Subject Key Identifier: 
                10:3C:3B:B0:15:FF:52:C1:87:A2:67:BB:86:0E:7B:39:AF:6A:BD:FD
            X509v3 Authority Key Identifier: 
                keyid:59:F7:D7:E8:BC:82:39:BD:EC:EC:B7:2C:0C:31:0E:A7:C6:4C:5E:5C
                DirName:/C=US/ST=California/L=Menlo Park/O=ON.Lab/OU=Test Deployment/CN=CORD Test Deployment Root CA
                serial:10:00

            X509v3 Basic Constraints: 
                CA:FALSE
            X509v3 Key Usage: critical
                Digital Signature, Key Encipherment
            X509v3 Extended Key Usage: 
                TLS Web Server Authentication
            X509v3 Subject Alternative Name: 
                DNS:keystone.cord.lab, DNS:keystone
    Signature Algorithm: sha256WithRSAEncryption
         41:75:b5:3d:b5:17:c4:82:70:3c:ee:ad:02:2f:23:a3:8f:6f:
         4c:51:42:64:03:9f:0d:2e:24:0a:b9:7d:31:4d:2b:bd:fa:e3:
         d0:5e:30:42:1b:d3:61:00:16:de:16:68:b2:6e:43:7d:16:28:
         70:e8:78:d7:c4:f9:f2:d0:8a:a0:c0:b0:b7:49:e7:37:d7:c0:
         9f:d6:03:37:e2:c0:68:7c:bb:16:97:f1:13:fd:ab:0b:09:b6:
         6d:1d:42:4a:f2:35:9f:31:b1:19:5c:61:f5:4e:ab:4a:9b:38:
         67:e4:7d:70:bc:b7:b6:b3:f9:91:98:be:73:78:90:1f:91:a3:
         63:ca:f5:f6:f8:b3:4b:2e:7b:85:ee:92:4b:80:f4:10:9c:38:
         ee:44:5d:6e:7e:64:fa:08:94:3a:25:5f:0a:ea:6b:f9:1b:c2:
         8e:d5:fa:fa:14:01:95:c9:5a:a6:de:74:02:0d:84:e2:b2:b9:
         57:17:70:fc:30:2e:f0:27:b9:39:ac:4e:87:57:85:5a:de:81:
         40:83:68:33:b6:10:b3:68:3c:b1:ae:ed:77:04:17:ff:3f:24:
         af:cb:3a:2a:f0:35:9f:42:50:7d:8e:11:ba:a0:e9:21:d3:76:
         de:38:68:de:8e:83:44:4d:47:96:eb:09:5e:b5:c4:48:92:e8:
         cd:dc:8b:b2:35:88:d3:46:73:a2:f7:f8:47:c6:07:37:6a:35:
         44:a0:05:dc:03:a9:b1:ee:db:82:b4:d9:90:58:61:86:9e:db:
         ad:8b:5a:56:37:ca:a1:12:82:07:a4:d7:a3:f7:43:e6:82:36:
         1e:a8:40:af:fc:ab:8c:6e:12:6a:34:f2:0f:4d:b2:df:aa:93:
         3b:1d:62:10:e7:a1:a7:31:22:be:07:6c:ca:40:ed:71:39:03:
         2d:63:b7:df:26:65:13:cc:ac:a3:53:c2:a3:49:c6:18:48:61:
         5d:b7:00:f1:b2:d2:c9:6a:5e:84:58:96:fc:86:0a:41:3e:00:
         bb:34:92:eb:1c:09:fe:89:30:6d:d4:1f:74:53:58:da:92:ab:
         75:6e:5b:a2:1e:07:4a:8e:3b:1f:4d:08:c8:30:d3:86:c5:f5:
         4e:f5:6a:9d:6e:66:b1:77:0b:1e:0e:8b:d4:41:73:57:7f:b5:
         ce:e7:84:ca:38:72:79:a6:33:d2:6e:9e:0f:d1:11:ed:0d:86:
         1c:da:64:56:0b:56:65:5d:e7:36:65:61:0d:e0:de:c1:f0:a4:
         93:c9:bb:e2:f2:52:bc:f7:74:b7:13:e9:e5:aa:82:51:ea:13:
         91:78:e0:3f:ae:25:e1:47:2e:f1:0a:ed:03:4c:d2:4d:94:09:
         ea:65:94:39:e6:57:29:b8
-----BEGIN CERTIFICATE-----
MIIFoTCCA4mgAwIBAgIBATANBgkqhkiG9w0BAQsFADBuMQswCQYDVQQGEwJVUzET
MBEGA1UECAwKQ2FsaWZvcm5pYTEPMA0GA1UECgwGT04uTGFiMRgwFgYDVQQLDA9U
ZXN0IERlcGxveW1lbnQxHzAdBgNVBAMMFk15U2l0ZSBJbnRlcm1lZGlhdGUgQ0Ew
HhcNMTgwMTA4MDkzMzA0WhcNMTkwMTA4MDkzMzA0WjCBgDELMAkGA1UEBhMCVVMx
EzARBgNVBAgMCkNhbGlmb3JuaWExEzARBgNVBAcMCk1lbmxvIFBhcmsxDzANBgNV
BAoMBk9OLkxhYjEaMBgGA1UECwwRTXlTaXRlIERlcGxveW1lbnQxGjAYBgNVBAMM
EWtleXN0b25lLmNvcmQubGFiMIIBIjANBgkqhkiG9w0BAQEFAAOCAQ8AMIIBCgKC
AQEArOq1BxpJfLTNDKBnfCXyLoljMsx363U4XrbN67xLrbVI/CXDEcIB5nzCyoPg
tDQIaO+ODdpgqmNeCYnJXPSEtfD5Klr4hJAml5X+3HylPR3wZ1rdep+R2ctTqg6j
fXB/IsqlrNgGthUSjJSrPa0EbFm8u5U/+5VvZ6y753uf6v/HHXe5d/ZiL4Kzdr2d
ozCC4bNql24zm4zv02Z89eeJuHethcR2dQVa7qTED/bz2gZjoKbJYFHh3+olGkxA
OyWyTXcU668ao4lF0ygeJoW53KjJRh5fzjNLPbu4NS15knRErA90wMIGgLoxVamV
PlD/cld0/mX0ogFfxqcEV+fmSwIDAQABo4IBNTCCATEwHQYDVR0OBBYEFBA8O7AV
/1LBh6Jnu4YOezmvar39MIG3BgNVHSMEga8wgayAFFn31+i8gjm97Oy3LAwxDqfG
TF5coYGPpIGMMIGJMQswCQYDVQQGEwJVUzETMBEGA1UECAwKQ2FsaWZvcm5pYTET
MBEGA1UEBwwKTWVubG8gUGFyazEPMA0GA1UECgwGT04uTGFiMRgwFgYDVQQLDA9U
ZXN0IERlcGxveW1lbnQxJTAjBgNVBAMMHENPUkQgVGVzdCBEZXBsb3ltZW50IFJv
b3QgQ0GCAhAAMAkGA1UdEwQCMAAwDgYDVR0PAQH/BAQDAgWgMBMGA1UdJQQMMAoG
CCsGAQUFBwMBMCYGA1UdEQQfMB2CEWtleXN0b25lLmNvcmQubGFigghrZXlzdG9u
ZTANBgkqhkiG9w0BAQsFAAOCAgEAQXW1PbUXxIJwPO6tAi8jo49vTFFCZAOfDS4k
Crl9MU0rvfrj0F4wQhvTYQAW3hZosm5DfRYocOh418T58tCKoMCwt0nnN9fAn9YD
N+LAaHy7FpfxE/2rCwm2bR1CSvI1nzGxGVxh9U6rSps4Z+R9cLy3trP5kZi+c3iQ
H5GjY8r19vizSy57he6SS4D0EJw47kRdbn5k+giUOiVfCupr+RvCjtX6+hQBlcla
pt50Ag2E4rK5Vxdw/DAu8Ce5OaxOh1eFWt6BQINoM7YQs2g8sa7tdwQX/z8kr8s6
KvA1n0JQfY4RuqDpIdN23jho3o6DRE1HlusJXrXESJLozdyLsjWI00Zzovf4R8YH
N2o1RKAF3AOpse7bgrTZkFhhhp7brYtaVjfKoRKCB6TXo/dD5oI2HqhAr/yrjG4S
ajTyD02y36qTOx1iEOehpzEivgdsykDtcTkDLWO33yZlE8yso1PCo0nGGEhhXbcA
8bLSyWpehFiW/IYKQT4AuzSS6xwJ/okwbdQfdFNY2pKrdW5boh4HSo47H00IyDDT
hsX1TvVqnW5msXcLHg6L1EFzV3+1zueEyjhyeaYz0m6eD9ER7Q2GHNpkVgtWZV3n
NmVhDeDewfCkk8m74vJSvPd0txPp5aqCUeoTkXjgP64l4Ucu8QrtA0zSTZQJ6mWU
OeZXKbg=
-----END CERTIFICATE-----
