Certificate:
    Data:
        Version: 3 (0x2)
        Serial Number: 4096 (0x1000)
    Signature Algorithm: sha256WithRSAEncryption
        Issuer: C=US, ST=California, L=Menlo Park, O=ON.Lab, OU=Test Deployment, CN=CORD Test Deployment Root CA
        Validity
            Not Before: Jan  8 09:25:21 2018 GMT
            Not After : Jan  8 09:25:21 2020 GMT
        Subject: C=US, ST=California, O=ON.Lab, OU=Test Deployment, CN=MySite Intermediate CA
        Subject Public Key Info:
            Public Key Algorithm: rsaEncryption
                Public-Key: (4096 bit)
                Modulus:
                    00:b6:a4:da:7c:89:cf:03:da:75:8a:ad:fb:07:90:
                    10:8b:00:1b:73:21:1a:0b:36:87:03:f2:4d:15:fe:
                    0e:c9:80:e1:63:50:61:25:a4:67:88:72:87:5d:4d:
                    28:40:ca:c0:e8:b3:d1:57:90:da:78:49:04:c7:a5:
                    9b:5c:9f:d2:89:f4:3a:dd:49:22:5c:cf:53:03:32:
                    e0:ea:3b:0c:17:16:28:e7:1a:5d:db:24:e9:27:08:
                    69:df:06:1f:12:07:0b:37:c0:f6:32:87:76:55:bd:
                    ad:c2:fe:fe:7a:32:e7:1c:9d:82:86:3a:38:61:98:
                    d3:6d:5a:f5:4c:5d:a6:b8:e6:74:e3:bf:8b:1c:c3:
                    08:5a:3c:31:09:0f:10:3b:56:0b:42:ec:0b:75:c4:
                    00:56:52:5c:46:bf:ca:22:8c:8d:4d:32:58:e6:96:
                    7c:5c:07:9c:34:66:72:94:7e:d1:d6:fe:ef:ea:ba:
                    17:b2:97:90:bf:bf:5a:ec:41:a8:66:36:b0:cf:8f:
                    cf:bc:16:1a:1d:d3:bf:0a:89:83:fe:72:2b:89:f1:
                    1f:5e:4b:f9:d0:bb:0c:34:2b:93:69:56:7e:d8:6b:
                    3f:56:ed:ed:31:01:6b:a0:c5:e0:f0:1b:f7:7d:db:
                    11:4e:60:86:cf:48:ba:c3:4e:53:d5:da:e1:14:68:
                    f6:fb:e7:3a:49:0e:cd:27:eb:55:6b:a1:c9:b5:57:
                    ab:8b:e6:e4:d9:5b:d2:e5:7b:0b:bd:ac:2d:4b:94:
                    27:81:c7:da:e8:ab:9e:53:71:5d:5c:dc:77:5f:68:
                    d0:5b:1d:8d:87:7a:d0:c4:e4:7d:9c:4d:14:75:a2:
                    3b:b7:b2:ef:14:c3:f9:60:58:cb:fc:12:8c:0b:a3:
                    5a:7a:f7:55:69:4c:fc:29:a5:66:db:68:c2:3e:be:
                    c0:43:82:b6:78:11:9c:ca:49:1c:d7:12:de:d7:61:
                    76:5f:5e:1b:98:0a:01:55:a1:65:5d:56:20:d1:f7:
                    d4:50:01:06:8f:9c:8e:e4:a4:0b:68:4b:c7:58:52:
                    12:bf:c7:2f:f9:44:07:17:03:3b:dd:67:04:ed:83:
                    70:ec:06:71:43:9f:c7:18:f8:cf:4a:1b:5a:01:0e:
                    b7:53:46:25:a2:33:e3:86:76:89:a4:4f:0c:2e:96:
                    9a:cd:cf:4a:ac:51:05:19:05:1c:f2:b5:c0:65:c5:
                    5d:d1:9b:e2:8a:b8:90:af:f0:2e:45:2d:ee:c1:6c:
                    f9:f8:06:6b:11:e1:ab:de:42:f4:8e:4d:08:f5:26:
                    58:b9:1a:5b:9a:d7:f3:0c:a0:56:43:36:8e:66:72:
                    16:eb:53:16:ec:50:2a:81:a1:4d:e0:38:0e:6d:4b:
                    0e:66:f7
                Exponent: 65537 (0x10001)
        X509v3 extensions:
            X509v3 Subject Key Identifier: 
                59:F7:D7:E8:BC:82:39:BD:EC:EC:B7:2C:0C:31:0E:A7:C6:4C:5E:5C
            X509v3 Authority Key Identifier: 
                keyid:87:2D:BB:A6:24:C1:C9:D4:3D:08:FB:5C:C1:7B:68:4A:DD:FD:0C:AC

            X509v3 Basic Constraints: critical
                CA:TRUE, pathlen:0
            X509v3 Key Usage: critical
                Digital Signature, Certificate Sign, CRL Sign
    Signature Algorithm: sha256WithRSAEncryption
         54:c1:ed:89:ff:e1:90:b3:e1:2e:10:70:17:61:5c:d9:63:e3:
         b7:c3:f4:95:6f:7a:f7:34:43:57:05:a7:ef:88:79:4a:81:00:
         95:05:5c:4c:d9:70:82:96:7d:c2:ec:02:09:79:f2:fe:1b:20:
         96:3b:f7:de:ce:89:f6:dd:4b:7e:09:ec:12:96:eb:a2:42:14:
         44:db:dd:c6:4f:9f:23:85:49:18:61:c4:6b:d6:f1:d3:6b:f6:
         78:1e:aa:d9:b3:c8:fa:85:7a:e3:d2:42:02:1a:92:18:1b:9d:
         ad:f5:1f:ac:90:1e:1d:a2:78:98:27:44:74:00:d1:ff:f1:3d:
         30:b9:a1:c4:c5:f1:0b:43:1b:90:00:85:27:4b:1a:12:8a:5d:
         bd:9a:53:d4:1d:31:89:59:49:a6:c5:b9:9e:c4:3c:66:b6:e8:
         f4:7d:ee:8b:5d:d6:55:40:09:e4:de:60:81:37:ff:1e:7f:46:
         07:a6:7c:23:19:9c:8b:f8:2d:e8:50:e9:a7:46:8c:42:cc:3f:
         b8:b5:ec:75:15:91:3b:3c:d2:7a:f5:be:59:24:2e:f1:0c:cb:
         12:29:f6:ab:af:93:b4:a1:90:69:8b:db:41:b6:0f:d4:25:b2:
         41:5c:22:e4:dd:0e:07:d8:80:ff:9a:c7:b1:6f:8b:7a:67:76:
         32:c0:a9:40:78:8b:09:75:ee:9c:0e:4a:2d:a4:ea:f8:23:ce:
         c4:84:58:3d:07:7f:44:a2:72:26:2b:86:3d:57:ab:b6:88:24:
         0b:ba:b0:d0:d8:1b:3d:ce:2e:bd:9f:39:5b:4b:36:11:c2:9c:
         ff:1a:88:fc:79:00:2d:c8:6a:8e:13:9e:6b:b1:95:3a:c0:fd:
         ee:44:bb:2c:20:64:4b:2d:e3:0d:de:24:2c:43:b2:cf:40:92:
         92:4f:d4:06:36:c1:13:1d:6b:43:13:da:89:df:b9:2d:27:81:
         c0:fa:14:d5:05:aa:3f:b4:6e:57:2b:db:95:cc:9f:f7:58:d8:
         e9:35:aa:7c:e6:7d:ec:c5:45:07:d7:1e:e2:38:2b:1e:f5:a4:
         3a:8d:0e:ff:71:18:6c:d4:eb:ff:2f:d4:ec:2a:85:8e:9b:2c:
         ed:a3:6f:09:a7:ff:5c:3b:dd:91:db:87:58:2a:14:74:3f:92:
         b2:d8:36:77:66:70:ae:4f:ce:2a:9e:d8:06:74:67:28:83:71:
         74:4c:a1:6d:ab:2e:45:c4:cf:b7:0a:c9:de:c8:be:e2:39:c8:
         21:13:c5:78:73:a5:69:08:8e:a3:e2:20:82:07:06:29:33:c2:
         13:d8:ed:43:68:92:ee:1a:54:11:8f:fd:bb:67:f6:45:ec:d4:
         c6:c8:6e:09:9c:d4:5f:b9
-----BEGIN CERTIFICATE-----
MIIF2jCCA8KgAwIBAgICEAAwDQYJKoZIhvcNAQELBQAwgYkxCzAJBgNVBAYTAlVT
MRMwEQYDVQQIDApDYWxpZm9ybmlhMRMwEQYDVQQHDApNZW5sbyBQYXJrMQ8wDQYD
VQQKDAZPTi5MYWIxGDAWBgNVBAsMD1Rlc3QgRGVwbG95bWVudDElMCMGA1UEAwwc
Q09SRCBUZXN0IERlcGxveW1lbnQgUm9vdCBDQTAeFw0xODAxMDgwOTI1MjFaFw0y
MDAxMDgwOTI1MjFaMG4xCzAJBgNVBAYTAlVTMRMwEQYDVQQIDApDYWxpZm9ybmlh
MQ8wDQYDVQQKDAZPTi5MYWIxGDAWBgNVBAsMD1Rlc3QgRGVwbG95bWVudDEfMB0G
A1UEAwwWTXlTaXRlIEludGVybWVkaWF0ZSBDQTCCAiIwDQYJKoZIhvcNAQEBBQAD
ggIPADCCAgoCggIBALak2nyJzwPadYqt+weQEIsAG3MhGgs2hwPyTRX+DsmA4WNQ
YSWkZ4hyh11NKEDKwOiz0VeQ2nhJBMelm1yf0on0Ot1JIlzPUwMy4Oo7DBcWKOca
Xdsk6ScIad8GHxIHCzfA9jKHdlW9rcL+/noy5xydgoY6OGGY021a9UxdprjmdOO/
ixzDCFo8MQkPEDtWC0LsC3XEAFZSXEa/yiKMjU0yWOaWfFwHnDRmcpR+0db+7+q6
F7KXkL+/WuxBqGY2sM+Pz7wWGh3TvwqJg/5yK4nxH15L+dC7DDQrk2lWfthrP1bt
7TEBa6DF4PAb933bEU5ghs9IusNOU9Xa4RRo9vvnOkkOzSfrVWuhybVXq4vm5Nlb
0uV7C72sLUuUJ4HH2uirnlNxXVzcd19o0FsdjYd60MTkfZxNFHWiO7ey7xTD+WBY
y/wSjAujWnr3VWlM/CmlZttowj6+wEOCtngRnMpJHNcS3tdhdl9eG5gKAVWhZV1W
INH31FABBo+cjuSkC2hLx1hSEr/HL/lEBxcDO91nBO2DcOwGcUOfxxj4z0obWgEO
t1NGJaIz44Z2iaRPDC6Wms3PSqxRBRkFHPK1wGXFXdGb4oq4kK/wLkUt7sFs+fgG
axHhq95C9I5NCPUmWLkaW5rX8wygVkM2jmZyFutTFuxQKoGhTeA4Dm1LDmb3AgMB
AAGjZjBkMB0GA1UdDgQWBBRZ99fovII5vezstywMMQ6nxkxeXDAfBgNVHSMEGDAW
gBSHLbumJMHJ1D0I+1zBe2hK3f0MrDASBgNVHRMBAf8ECDAGAQH/AgEAMA4GA1Ud
DwEB/wQEAwIBhjANBgkqhkiG9w0BAQsFAAOCAgEAVMHtif/hkLPhLhBwF2Fc2WPj
t8P0lW969zRDVwWn74h5SoEAlQVcTNlwgpZ9wuwCCXny/hsgljv33s6J9t1Lfgns
EpbrokIURNvdxk+fI4VJGGHEa9bx02v2eB6q2bPI+oV649JCAhqSGBudrfUfrJAe
HaJ4mCdEdADR//E9MLmhxMXxC0MbkACFJ0saEopdvZpT1B0xiVlJpsW5nsQ8Zrbo
9H3ui13WVUAJ5N5ggTf/Hn9GB6Z8Ixmci/gt6FDpp0aMQsw/uLXsdRWROzzSevW+
WSQu8QzLEin2q6+TtKGQaYvbQbYP1CWyQVwi5N0OB9iA/5rHsW+Lemd2MsCpQHiL
CXXunA5KLaTq+CPOxIRYPQd/RKJyJiuGPVertogkC7qw0NgbPc4uvZ85W0s2EcKc
/xqI/HkALchqjhOea7GVOsD97kS7LCBkSy3jDd4kLEOyz0CSkk/UBjbBEx1rQxPa
id+5LSeBwPoU1QWqP7RuVyvblcyf91jY6TWqfOZ97MVFB9ce4jgrHvWkOo0O/3EY
bNTr/y/U7CqFjpss7aNvCaf/XDvdkduHWCoUdD+Sstg2d2Zwrk/OKp7YBnRnKINx
dEyhbasuRcTPtwrJ3si+4jnIIRPFeHOlaQiOo+IgggcGKTPCE9jtQ2iS7hpUEY/9
u2f2RezUxshuCZzUX7k=
-----END CERTIFICATE-----
