Certificate:
    Data:
        Version: 3 (0x2)
        Serial Number: 2 (0x2)
    Signature Algorithm: sha256WithRSAEncryption
        Issuer: C=US, ST=California, O=ON.Lab, OU=Test Deployment, CN=MySite Intermediate CA
        Validity
            Not Before: Jan  8 09:33:04 2018 GMT
            Not After : Jan  8 09:33:04 2019 GMT
        Subject: C=US, ST=California, L=Menlo Park, O=ON.Lab, OU=MySite Deployment, CN=xos-core.cord.lab
        Subject Public Key Info:
            Public Key Algorithm: rsaEncryption
                Public-Key: (2048 bit)
                Modulus:
                    00:a6:dc:c3:7c:60:00:a9:8f:eb:a5:e2:d1:91:6a:
                    d3:ae:90:13:7e:6c:03:a9:32:23:da:91:ba:e0:ce:
                    33:8c:30:9a:09:11:d3:3a:7a:33:02:fa:31:82:c3:
                    f2:8c:8e:21:8b:0b:9a:49:74:4a:38:8d:b5:57:1d:
                    38:1e:b9:8f:63:e9:44:7c:0b:97:b3:48:8b:b2:e4:
                    4e:89:da:ff:0c:d3:2b:78:96:ac:43:8f:d4:f8:89:
                    63:24:6c:86:4c:75:70:80:a0:1e:64:1f:ef:7a:93:
                    7d:c8:da:1f:e7:14:67:04:b0:8f:68:2e:bb:3c:61:
                    88:cb:ce:23:65:a6:8d:32:8b:20:6f:65:47:e1:25:
                    48:91:9a:d1:9d:c2:20:76:b2:07:27:ee:e3:8c:fa:
                    d8:e0:64:90:38:f2:4e:62:4e:1d:f5:3a:96:5b:8f:
                    b7:47:09:90:70:c2:f8:e4:66:5c:af:9e:27:23:67:
                    cc:b9:42:e7:a8:95:2e:a8:83:72:dc:96:4f:9f:ca:
                    1a:3e:bb:aa:7c:9e:a9:4c:1d:df:98:62:45:2f:33:
                    f3:2e:ad:27:e0:20:cc:e5:fd:4f:35:b4:d9:3a:2f:
                    2c:44:77:8b:39:a9:2a:2c:5d:1a:1e:1a:66:75:94:
                    7c:3c:87:78:06:f3:d3:3b:5e:28:30:f5:a5:93:f8:
                    f6:7b
                Exponent: 65537 (0x10001)
        X509v3 extensions:
            X509v3 Subject Key Identifier: 
                27:C6:CA:1F:3A:2D:BB:EE:54:C6:A0:1A:E4:DB:A3:8B:89:43:FE:13
            X509v3 Authority Key Identifier: 
                keyid:59:F7:D7:E8:BC:82:39:BD:EC:EC:B7:2C:0C:31:0E:A7:C6:4C:5E:5C
                DirName:/C=US/ST=California/L=Menlo Park/O=ON.Lab/OU=Test Deployment/CN=CORD Test Deployment Root CA
                serial:10:00

            X509v3 Basic Constraints: 
                CA:FALSE
            X509v3 Key Usage: critical
                Digital Signature, Key Encipherment
            X509v3 Extended Key Usage: 
                TLS Web Server Authentication
            X509v3 Subject Alternative Name: 
                DNS:xos-core.cord.lab, DNS:xos-core
    Signature Algorithm: sha256WithRSAEncryption
         5f:4b:da:4e:8d:ce:b2:cb:6d:74:15:a1:fd:9a:64:fa:20:2e:
         c2:e8:1e:3c:8b:af:f2:ee:9d:78:f2:c3:12:80:03:8e:e4:55:
         ef:e4:f9:d4:38:84:39:15:49:1b:f5:ff:1a:80:49:f3:5c:05:
         77:4d:55:75:cf:2a:a4:76:51:03:71:bf:65:7e:2a:57:72:d8:
         61:ce:a8:a4:ac:43:d0:81:a8:d2:49:35:68:45:e7:90:47:7a:
         9d:02:b1:e4:35:24:c6:42:52:67:d0:2f:a5:84:0a:f3:f8:50:
         3f:82:c2:f6:da:3f:f7:3b:0c:73:73:75:2a:db:79:ed:9c:04:
         2c:63:49:b8:76:63:40:38:b8:40:72:1d:c0:7b:ef:2f:71:b2:
         8b:5a:fe:98:7b:ed:0f:c5:52:93:90:96:fe:b1:14:0c:df:85:
         62:45:f2:94:cb:c6:e9:ab:00:4e:46:47:b3:9a:fc:43:cd:2e:
         18:56:d2:3e:99:0e:32:52:3a:77:7e:b6:be:e6:16:fd:0f:c5:
         b5:1d:55:3f:49:d0:c2:85:55:2f:70:12:22:72:78:95:fa:0c:
         a7:f1:ce:cf:a1:51:f8:24:8f:49:d0:03:db:9e:23:e9:84:36:
         4e:6e:83:66:c7:51:ef:a5:d1:c3:2e:ba:09:24:4d:82:07:31:
         c1:03:57:e3:00:3f:40:fc:73:00:f5:ac:53:80:5f:41:d6:84:
         53:44:00:c5:db:53:0f:ae:bf:8e:4d:7e:3d:c3:9d:ae:8f:a1:
         d5:d7:c5:1b:1d:45:d0:9d:3d:26:42:61:e9:4d:ba:af:27:86:
         54:d7:da:ad:15:71:e9:8b:5b:1b:6c:aa:42:1c:39:ee:00:d1:
         99:7e:3d:6a:47:5c:c5:f0:03:68:4f:17:b2:50:bd:35:fc:e0:
         29:8a:99:6a:96:da:90:64:32:aa:29:a1:55:36:fc:44:a6:5b:
         ab:ed:ef:18:bd:62:5b:51:da:62:db:24:76:00:50:d5:78:7b:
         e2:6b:a0:b2:12:b1:64:b5:31:41:a3:6a:94:0a:3e:7c:76:a8:
         ea:e1:94:1d:3d:f1:93:6c:0b:2f:2e:00:47:bc:9b:0a:8f:2c:
         87:4a:25:1c:0f:2b:2f:39:b4:1a:73:5d:c5:d8:8d:83:e5:56:
         fc:71:64:b2:61:a9:27:f9:32:32:b6:45:46:6f:78:78:7f:ea:
         9e:aa:d7:34:3f:7d:1a:a4:3d:40:25:7a:ac:48:68:f4:e7:d8:
         03:00:13:b3:45:51:e1:90:b0:bf:5f:56:5a:8c:a6:c3:80:c0:
         3e:70:cd:55:9a:af:6d:c0:67:38:8f:8a:e7:38:d4:06:d0:7d:
         b0:4c:70:d7:b3:0c:e5:89
-----BEGIN CERTIFICATE-----
MIIFoTCCA4mgAwIBAgIBAjANBgkqhkiG9w0BAQsFADBuMQswCQYDVQQGEwJVUzET
MBEGA1UECAwKQ2FsaWZvcm5pYTEPMA0GA1UECgwGT04uTGFiMRgwFgYDVQQLDA9U
ZXN0IERlcGxveW1lbnQxHzAdBgNVBAMMFk15U2l0ZSBJbnRlcm1lZGlhdGUgQ0Ew
HhcNMTgwMTA4MDkzMzA0WhcNMTkwMTA4MDkzMzA0WjCBgDELMAkGA1UEBhMCVVMx
EzARBgNVBAgMCkNhbGlmb3JuaWExEzARBgNVBAcMCk1lbmxvIFBhcmsxDzANBgNV
BAoMBk9OLkxhYjEaMBgGA1UECwwRTXlTaXRlIERlcGxveW1lbnQxGjAYBgNVBAMM
EXhvcy1jb3JlLmNvcmQubGFiMIIBIjANBgkqhkiG9w0BAQEFAAOCAQ8AMIIBCgKC
AQEAptzDfGAAqY/rpeLRkWrTrpATfmwDqTIj2pG64M4zjDCaCRHTOnozAvoxgsPy
jI4hiwuaSXRKOI21Vx04HrmPY+lEfAuXs0iLsuROidr/DNMreJasQ4/U+IljJGyG
THVwgKAeZB/vepN9yNof5xRnBLCPaC67PGGIy84jZaaNMosgb2VH4SVIkZrRncIg
drIHJ+7jjPrY4GSQOPJOYk4d9TqWW4+3RwmQcML45GZcr54nI2fMuULnqJUuqINy
3JZPn8oaPruqfJ6pTB3fmGJFLzPzLq0n4CDM5f1PNbTZOi8sRHeLOakqLF0aHhpm
dZR8PId4BvPTO14oMPWlk/j2ewIDAQABo4IBNTCCATEwHQYDVR0OBBYEFCfGyh86
LbvuVMagGuTbo4uJQ/4TMIG3BgNVHSMEga8wgayAFFn31+i8gjm97Oy3LAwxDqfG
TF5coYGPpIGMMIGJMQswCQYDVQQGEwJVUzETMBEGA1UECAwKQ2FsaWZvcm5pYTET
MBEGA1UEBwwKTWVubG8gUGFyazEPMA0GA1UECgwGT04uTGFiMRgwFgYDVQQLDA9U
ZXN0IERlcGxveW1lbnQxJTAjBgNVBAMMHENPUkQgVGVzdCBEZXBsb3ltZW50IFJv
b3QgQ0GCAhAAMAkGA1UdEwQCMAAwDgYDVR0PAQH/BAQDAgWgMBMGA1UdJQQMMAoG
CCsGAQUFBwMBMCYGA1UdEQQfMB2CEXhvcy1jb3JlLmNvcmQubGFiggh4b3MtY29y
ZTANBgkqhkiG9w0BAQsFAAOCAgEAX0vaTo3OssttdBWh/Zpk+iAuwugePIuv8u6d
ePLDEoADjuRV7+T51DiEORVJG/X/GoBJ81wFd01Vdc8qpHZRA3G/ZX4qV3LYYc6o
pKxD0IGo0kk1aEXnkEd6nQKx5DUkxkJSZ9AvpYQK8/hQP4LC9to/9zsMc3N1Ktt5
7ZwELGNJuHZjQDi4QHIdwHvvL3Gyi1r+mHvtD8VSk5CW/rEUDN+FYkXylMvG6asA
TkZHs5r8Q80uGFbSPpkOMlI6d362vuYW/Q/FtR1VP0nQwoVVL3ASInJ4lfoMp/HO
z6FR+CSPSdAD254j6YQ2Tm6DZsdR76XRwy66CSRNggcxwQNX4wA/QPxzAPWsU4Bf
QdaEU0QAxdtTD66/jk1+PcOdro+h1dfFGx1F0J09JkJh6U26ryeGVNfarRVx6Ytb
G2yqQhw57gDRmX49akdcxfADaE8XslC9NfzgKYqZapbakGQyqimhVTb8RKZbq+3v
GL1iW1HaYtskdgBQ1Xh74mugshKxZLUxQaNqlAo+fHao6uGUHT3xk2wLLy4AR7yb
Co8sh0olHA8rLzm0GnNdxdiNg+VW/HFksmGpJ/kyMrZFRm94eH/qnqrXND99GqQ9
QCV6rEho9OfYAwATs0VR4ZCwv19WWoymw4DAPnDNVZqvbcBnOI+K5zjUBtB9sExw
17MM5Yk=
-----END CERTIFICATE-----
